; Function Attrs: nounwind uwtable
define dso_local noundef i32 @resrob(double %0, ptr noundef %1, ptr noundef %2, ptr noundef %3, ptr readnone captures(none) %4) #0 {
  %6 = tail call ptr @N_VGetArrayPointer(ptr noundef %1) #7
  %7 = tail call ptr @N_VGetArrayPointer(ptr noundef %2) #7
  %8 = tail call ptr @N_VGetArrayPointer(ptr noundef %3) #7
  %9 = load double, ptr %6, align 8, !tbaa !11
  %10 = getelementptr inbounds nuw i8, ptr %6, i64 8
  %11 = load double, ptr %10, align 8, !tbaa !11
  %12 = fmul double %11, 1.000000e+04
  %13 = getelementptr inbounds nuw i8, ptr %6, i64 16
  %14 = load double, ptr %13, align 8, !tbaa !11
  %15 = fmul double %12, %14
  %16 = tail call double @llvm.fmuladd.f64(double %9, double -4.000000e-02, double %15)
  store double %16, ptr %8, align 8, !tbaa !11
  %17 = fneg double %16
  %18 = load double, ptr %10, align 8, !tbaa !11
  %19 = fmul double %18, -3.000000e+07
  %20 = tail call double @llvm.fmuladd.f64(double %19, double %18, double %17)
  %21 = getelementptr inbounds nuw i8, ptr %7, i64 8
  %22 = load double, ptr %21, align 8, !tbaa !11
  %23 = fsub double %20, %22
  %24 = getelementptr inbounds nuw i8, ptr %8, i64 8
  store double %23, ptr %24, align 8, !tbaa !11
  %25 = load double, ptr %7, align 8, !tbaa !11
  %26 = fsub double %16, %25
  store double %26, ptr %8, align 8, !tbaa !11
  %27 = load double, ptr %6, align 8, !tbaa !11
  %28 = load double, ptr %10, align 8, !tbaa !11
  %29 = fadd double %27, %28
  %30 = load double, ptr %13, align 8, !tbaa !11
  %31 = fadd double %29, %30
  %32 = fadd double %31, -1.000000e+00
  %33 = getelementptr inbounds nuw i8, ptr %8, i64 16
  store double %32, ptr %33, align 8, !tbaa !11
  ret i32 0
}